; Function Attrs: mustprogress uwtable
define hidden void @_ZN2dd11bdd_manager6mk_varERK7svectorIjjE(ptr noalias sret(%"class.dd::bddv") align 8 %agg.result, ptr noundef nonnull align 8 dereferenceable(728) %this, ptr nocapture noundef nonnull readonly align 8 dereferenceable(8) %vars) local_unnamed_addr #3 align 2 {
entry:
  %0 = load ptr, ptr %vars, align 8
  %cmp.i = icmp eq ptr %0, null
  br i1 %cmp.i, label %_ZNK6vectorIjLb0EjE4sizeEv.exit, label %if.end.i

if.end.i:                                         ; preds = %entry
  %arrayidx.i = getelementptr inbounds i8, ptr %0, i64 -4
  %1 = load i32, ptr %arrayidx.i, align 4
  br label %_ZNK6vectorIjLb0EjE4sizeEv.exit

_ZNK6vectorIjLb0EjE4sizeEv.exit:                  ; preds = %entry, %if.end.i
  %retval.0.i = phi i32 [ %1, %if.end.i ], [ 0, %entry ]
  tail call void @_ZN2dd11bdd_manager6mk_varEjPKj(ptr sret(%"class.dd::bddv") align 8 %agg.result, ptr noundef nonnull align 8 dereferenceable(728) %this, i32 noundef %retval.0.i, ptr noundef %0)
  ret void
}